target datalayout = "e-m:e-p270:32:32-p271:32:32-p272:64:64-i64:64-i128:128-f80:128-n8:16:32:64-S128"
target triple = "x86_64-pc-linux-gnu"

%struct.Fraig_NodeStruct_t_ = type { i32, i32, i32, i32, i32, i32, i32, ptr, ptr, ptr, ptr, ptr, ptr, ptr, ptr, i32, i32, ptr, ptr, ptr, ptr, ptr, ptr, ptr }

; Function Attrs: nounwind uwtable
define void @Fraig_NodeSetChoice(ptr noundef %0, ptr noundef %1, ptr noundef %2) #0 {
  %4 = alloca ptr, align 8
  %5 = alloca ptr, align 8
  %6 = alloca ptr, align 8
  store ptr %0, ptr %4, align 8, !tbaa !3
  store ptr %1, ptr %5, align 8, !tbaa !30
  store ptr %2, ptr %6, align 8, !tbaa !30
  %7 = load ptr, ptr %5, align 8, !tbaa !30
  %8 = getelementptr inbounds nuw %struct.Fraig_NodeStruct_t_, ptr %7, i32 0, i32 13
  %9 = load ptr, ptr %8, align 8, !tbaa !53
  %10 = load ptr, ptr %6, align 8, !tbaa !30
  %11 = getelementptr inbounds nuw %struct.Fraig_NodeStruct_t_, ptr %10, i32 0, i32 13
  store ptr %9, ptr %11, align 8, !tbaa !53
  %12 = load ptr, ptr %6, align 8, !tbaa !30
  %13 = load ptr, ptr %5, align 8, !tbaa !30
  %14 = getelementptr inbounds nuw %struct.Fraig_NodeStruct_t_, ptr %13, i32 0, i32 13
  store ptr %12, ptr %14, align 8, !tbaa !53
  %15 = load ptr, ptr %5, align 8, !tbaa !30
  %16 = load ptr, ptr %6, align 8, !tbaa !30
  %17 = getelementptr inbounds nuw %struct.Fraig_NodeStruct_t_, ptr %16, i32 0, i32 14
  store ptr %15, ptr %17, align 8, !tbaa !54
  ret void
}