; Function Attrs: mustprogress nofree norecurse nosync nounwind willreturn memory(argmem: readwrite) uwtable
define void @Fraig_NodeSetChoice(ptr noundef readnone captures(none) %0, ptr noundef %1, ptr noundef initializes((80, 88)) %2) local_unnamed_addr #5 {
  %4 = getelementptr inbounds nuw i8, ptr %1, i64 80
  %5 = load ptr, ptr %4, align 8, !tbaa !49
  %6 = getelementptr inbounds nuw i8, ptr %2, i64 80
  store ptr %5, ptr %6, align 8, !tbaa !49
  store ptr %2, ptr %4, align 8, !tbaa !49
  %7 = getelementptr inbounds nuw i8, ptr %2, i64 88
  store ptr %1, ptr %7, align 8, !tbaa !50
  ret void
}